; ModuleID = 'bench/linux/original/generic_mpih-sub1.ll'
source_filename = "bench/linux/original/generic_mpih-sub1.ll"
target datalayout = "e-m:e-p270:32:32-p271:32:32-p272:64:64-i64:64-i128:128-f80:128-n8:16:32:64-S128"
target triple = "x86_64-unknown-linux-gnu"

; Function Attrs: fn_ret_thunk_extern nofree norecurse nosync nounwind null_pointer_is_valid memory(argmem: readwrite)
define dso_local i64 @mpihelp_sub_n(ptr nocapture noundef writeonly %0, ptr nocapture noundef readonly %1, ptr nocapture noundef readonly %2, i32 noundef %3) local_unnamed_addr #0 align 16 {
  %5 = sub i32 0, %3
  %6 = sext i32 %5 to i64
  %7 = sub nsw i64 0, %6
  %8 = getelementptr i64, ptr %1, i64 %7
  %9 = getelementptr i64, ptr %2, i64 %7
  %10 = getelementptr i64, ptr %0, i64 %7
  br label %11

11:                                               ; preds = %11, %4
  %12 = phi i64 [ 0, %4 ], [ %25, %11 ]
  %13 = phi i32 [ %5, %4 ], [ %27, %11 ]
  %14 = sext i32 %13 to i64
  %15 = getelementptr i64, ptr %9, i64 %14
  %16 = load i64, ptr %15, align 8
  %17 = getelementptr i64, ptr %8, i64 %14
  %18 = load i64, ptr %17, align 8
  %19 = add i64 %16, %12
  %20 = icmp ult i64 %19, %12
  %21 = zext i1 %20 to i64
  %22 = sub i64 %18, %19
  %23 = icmp ugt i64 %19, %18
  %24 = zext i1 %23 to i64
  %25 = add nuw nsw i64 %21, %24
  %26 = getelementptr i64, ptr %10, i64 %14
  store i64 %22, ptr %26, align 8
  %27 = add i32 %13, 1
  %28 = icmp eq i32 %27, 0
  br i1 %28, label %29, label %11, !llvm.loop !5

29:                                               ; preds = %11
  ret i64 %25
}


!llvm.module.flags = !{!0, !1, !2, !3, !4}

!0 = !{i32 1, !"wchar_size", i32 2}
!1 = !{i32 8, !"cf-protection-branch", i32 1}
!2 = !{i32 4, !"function_return_thunk_extern", i32 1}
!3 = !{i32 4, !"indirect_branch_cs_prefix", i32 1}
!4 = !{i32 4, !"SkipRaxSetup", i32 1}
!5 = distinct !{!5, !6, !7}
!6 = !{!"llvm.loop.mustprogress"}
!7 = !{!"llvm.loop.unroll.disable"}
